; Function Attrs: mustprogress nounwind uwtable
define internal fastcc void @_ZN12_GLOBAL__N_112StmtProfiler20VisitOMPIteratorExprEPKN5clang15OMPIteratorExprE(ptr noundef nonnull align 8 dereferenceable(18) %0, ptr noundef %1) unnamed_addr #0 align 2 {
  tail call fastcc void @_ZN12_GLOBAL__N_112StmtProfiler9VisitStmtEPKN5clang4StmtE(ptr noundef nonnull align 8 dereferenceable(18) %0, ptr noundef %1)
  %3 = getelementptr inbounds nuw i8, ptr %1, i64 28
  %4 = load i32, ptr %3, align 4
  %.not = icmp eq i32 %4, 0
  br i1 %.not, label %._crit_edge, label %.lr.ph

.lr.ph:                                           ; preds = %2, %.lr.ph
  %.07 = phi i32 [ %9, %.lr.ph ], [ 0, %2 ]
  %5 = tail call noundef ptr @_ZN5clang15OMPIteratorExpr15getIteratorDeclEj(ptr noundef nonnull align 8 dereferenceable(32) %1, i32 noundef %.07) #11
  %6 = load ptr, ptr %0, align 8
  %7 = getelementptr inbounds nuw i8, ptr %6, i64 24
  %8 = load ptr, ptr %7, align 8
  tail call void %8(ptr noundef nonnull align 8 dereferenceable(18) %0, ptr noundef %5) #11
  %9 = add nuw i32 %.07, 1
  %exitcond.not = icmp eq i32 %9, %4
  br i1 %exitcond.not, label %._crit_edge, label %.lr.ph, !llvm.loop !9

._crit_edge:                                      ; preds = %.lr.ph, %2
  ret void
}